; Function Attrs: uwtable
define hidden noundef zeroext i1 @_ZThn16_N4cvc58internal5proof30AletheProofPostprocessCallback12shouldUpdateESt10shared_ptrINS0_9ProofNodeEERKSt6vectorINS0_12NodeTemplateILb1EEESaIS8_EERb(ptr noundef readonly captures(none) %0, ptr noundef readonly captures(none) %1, ptr nonnull readnone align 8 captures(none) %2, ptr nonnull readnone align 1 captures(none) %3) unnamed_addr #9 align 2 {
  %5 = getelementptr inbounds nuw i8, ptr %0, i64 24
  %6 = load i64, ptr %5, align 8, !tbaa !26
  %7 = icmp eq i64 %6, 0
  br i1 %7, label %8, label %_ZN4cvc58internal5proof30AletheProofPostprocessCallback12shouldUpdateESt10shared_ptrINS0_9ProofNodeEERKSt6vectorINS0_12NodeTemplateILb1EEESaIS8_EERb.exit

8:                                                ; preds = %4
  %9 = load ptr, ptr %1, align 8, !tbaa !47
  %10 = tail call noundef i32 @_ZNK4cvc58internal9ProofNode7getRuleEv(ptr noundef nonnull align 8 dereferenceable(65) %9)
  %11 = icmp ne i32 %10, 155
  br label %_ZN4cvc58internal5proof30AletheProofPostprocessCallback12shouldUpdateESt10shared_ptrINS0_9ProofNodeEERKSt6vectorINS0_12NodeTemplateILb1EEESaIS8_EERb.exit

_ZN4cvc58internal5proof30AletheProofPostprocessCallback12shouldUpdateESt10shared_ptrINS0_9ProofNodeEERKSt6vectorINS0_12NodeTemplateILb1EEESaIS8_EERb.exit: ; preds = %4, %8
  %12 = phi i1 [ false, %4 ], [ %11, %8 ]
  ret i1 %12
}